; Function Attrs: nounwind uwtable
define range(i32 -10000, 2) i32 @stmm_find_or_add(ptr noundef captures(none) %0, ptr noundef %1, ptr noundef writeonly %2) local_unnamed_addr #0 {
  %4 = getelementptr inbounds nuw i8, ptr %0, i64 8
  %5 = load ptr, ptr %4, align 8
  %6 = icmp eq ptr %5, @stmm_ptrhash
  br i1 %6, label %7, label %15

7:                                                ; preds = %3
  %8 = ptrtoint ptr %1 to i64
  %9 = lshr i64 %8, 2
  %10 = getelementptr inbounds nuw i8, ptr %0, i64 16
  %11 = load i32, ptr %10, align 8
  %12 = sext i32 %11 to i64
  %13 = urem i64 %9, %12
  %14 = trunc i64 %13 to i32
  br label %28

15:                                               ; preds = %3
  %16 = icmp eq ptr %5, @stmm_numhash
  br i1 %16, label %17, label %24

17:                                               ; preds = %15
  %18 = ptrtoint ptr %1 to i64
  %19 = trunc i64 %18 to i32
  %20 = tail call range(i32 0, -2147483648) i32 @llvm.abs.i32(i32 %19, i1 true)
  %21 = getelementptr inbounds nuw i8, ptr %0, i64 16
  %22 = load i32, ptr %21, align 8
  %23 = srem i32 %20, %22
  br label %28

24:                                               ; preds = %15
  %25 = getelementptr inbounds nuw i8, ptr %0, i64 16
  %26 = load i32, ptr %25, align 8
  %27 = tail call i32 %5(ptr noundef %1, i32 noundef %26) #13
  br label %28

28:                                               ; preds = %17, %24, %7
  %29 = phi i32 [ %14, %7 ], [ %23, %17 ], [ %27, %24 ]
  %30 = getelementptr inbounds nuw i8, ptr %0, i64 40
  %31 = load ptr, ptr %30, align 8
  %32 = sext i32 %29 to i64
  %33 = getelementptr inbounds ptr, ptr %31, i64 %32
  %.06480 = load ptr, ptr %33, align 8
  %.not81 = icmp eq ptr %.06480, null
  br i1 %.not81, label %.critedge77, label %.lr.ph

.lr.ph:                                           ; preds = %28, %42
  %.06483 = phi ptr [ %.064, %42 ], [ %.06480, %28 ]
  %.082 = phi ptr [ %43, %42 ], [ %33, %28 ]
  %34 = load ptr, ptr %0, align 8
  %35 = icmp eq ptr %34, @stmm_numcmp
  %36 = icmp eq ptr %34, @stmm_ptrcmp
  %or.cond = or i1 %35, %36
  %37 = load ptr, ptr %.06483, align 8
  br i1 %or.cond, label %38, label %39

38:                                               ; preds = %.lr.ph
  %.not72 = icmp eq ptr %1, %37
  br i1 %.not72, label %.critedge, label %42

39:                                               ; preds = %.lr.ph
  %40 = tail call i32 %34(ptr noundef %1, ptr noundef %37) #13
  %41 = icmp eq i32 %40, 0
  br i1 %41, label %.critedge, label %42

42:                                               ; preds = %38, %39
  %43 = getelementptr inbounds nuw i8, ptr %.06483, i64 16
  %.064 = load ptr, ptr %43, align 8
  %.not = icmp eq ptr %.064, null
  br i1 %.not, label %.critedge77, label %.lr.ph, !llvm.loop !12

.critedge:                                        ; preds = %39, %38
  %44 = getelementptr inbounds nuw i8, ptr %0, i64 28
  %45 = load i32, ptr %44, align 4
  %.not73 = icmp eq i32 %45, 0
  br i1 %.not73, label %101, label %46

46:                                               ; preds = %.critedge
  %47 = getelementptr inbounds nuw i8, ptr %.06483, i64 16
  %48 = load ptr, ptr %47, align 8
  store ptr %48, ptr %.082, align 8
  %49 = load ptr, ptr %30, align 8
  %50 = getelementptr inbounds ptr, ptr %49, i64 %32
  %51 = load ptr, ptr %50, align 8
  store ptr %51, ptr %47, align 8
  %52 = load ptr, ptr %30, align 8
  %53 = getelementptr inbounds ptr, ptr %52, i64 %32
  store ptr %.06483, ptr %53, align 8
  br label %101

.critedge77:                                      ; preds = %42, %28
  %54 = getelementptr inbounds nuw i8, ptr %0, i64 20
  %55 = load i32, ptr %54, align 4
  %56 = getelementptr inbounds nuw i8, ptr %0, i64 16
  %57 = load i32, ptr %56, align 8
  %58 = sdiv i32 %55, %57
  %59 = getelementptr inbounds nuw i8, ptr %0, i64 24
  %60 = load i32, ptr %59, align 8
  %.not75 = icmp slt i32 %58, %60
  br i1 %.not75, label %85, label %61

61:                                               ; preds = %.critedge77
  %62 = tail call fastcc i32 @rehash(ptr noundef nonnull %0)
  %63 = icmp eq i32 %62, -10000
  br i1 %63, label %104, label %64

64:                                               ; preds = %61
  %65 = load ptr, ptr %4, align 8
  %66 = icmp eq ptr %65, @stmm_ptrhash
  br i1 %66, label %67, label %74

67:                                               ; preds = %64
  %68 = ptrtoint ptr %1 to i64
  %69 = lshr i64 %68, 2
  %70 = load i32, ptr %56, align 8
  %71 = sext i32 %70 to i64
  %72 = urem i64 %69, %71
  %73 = trunc i64 %72 to i32
  br label %85

74:                                               ; preds = %64
  %75 = icmp eq ptr %65, @stmm_numhash
  br i1 %75, label %76, label %82

76:                                               ; preds = %74
  %77 = ptrtoint ptr %1 to i64
  %78 = trunc i64 %77 to i32
  %79 = tail call range(i32 0, -2147483648) i32 @llvm.abs.i32(i32 %78, i1 true)
  %80 = load i32, ptr %56, align 8
  %81 = srem i32 %79, %80
  br label %85

82:                                               ; preds = %74
  %83 = load i32, ptr %56, align 8
  %84 = tail call i32 %65(ptr noundef %1, i32 noundef %83) #13
  br label %85

85:                                               ; preds = %67, %82, %76, %.critedge77
  %.066 = phi i32 [ %29, %.critedge77 ], [ %73, %67 ], [ %81, %76 ], [ %84, %82 ]
  %86 = getelementptr inbounds nuw i8, ptr %0, i64 48
  %87 = load ptr, ptr %86, align 8
  %88 = tail call ptr @Extra_MmFixedEntryFetch(ptr noundef %87) #13
  %89 = icmp eq ptr %88, null
  br i1 %89, label %104, label %90

90:                                               ; preds = %85
  store ptr %1, ptr %88, align 8
  %91 = getelementptr inbounds nuw i8, ptr %88, i64 8
  store ptr null, ptr %91, align 8
  %92 = load ptr, ptr %30, align 8
  %93 = sext i32 %.066 to i64
  %94 = getelementptr inbounds ptr, ptr %92, i64 %93
  %95 = load ptr, ptr %94, align 8
  %96 = getelementptr inbounds nuw i8, ptr %88, i64 16
  store ptr %95, ptr %96, align 8
  %97 = load ptr, ptr %30, align 8
  %98 = getelementptr inbounds ptr, ptr %97, i64 %93
  store ptr %88, ptr %98, align 8
  %99 = load i32, ptr %54, align 4
  %100 = add nsw i32 %99, 1
  store i32 %100, ptr %54, align 4
  %.not76 = icmp eq ptr %2, null
  br i1 %.not76, label %104, label %.sink.split

101:                                              ; preds = %46, %.critedge
  %.not74 = icmp eq ptr %2, null
  br i1 %.not74, label %104, label %102

102:                                              ; preds = %101
  %103 = getelementptr inbounds nuw i8, ptr %.06483, i64 8
  br label %.sink.split

.sink.split:                                      ; preds = %90, %102
  %.sink = phi ptr [ %103, %102 ], [ %91, %90 ]
  %.065.ph = phi i32 [ 1, %102 ], [ 0, %90 ]
  store ptr %.sink, ptr %2, align 8
  br label %104

104:                                              ; preds = %.sink.split, %101, %90, %85, %61
  %.065 = phi i32 [ -10000, %61 ], [ -10000, %85 ], [ 0, %90 ], [ 1, %101 ], [ %.065.ph, %.sink.split ]
  ret i32 %.065
}